; Function Attrs: mustprogress uwtable
define hidden noundef zeroext i1 @_ZN3smt10theory_seq10branch_nqsEv(ptr noundef nonnull align 8 dereferenceable(4328) %this) local_unnamed_addr #3 align 2 personality ptr @__gxx_personality_v0 {
entry:
  %n = alloca %"class.smt::theory_seq::ne", align 8
  %m_nqs = getelementptr inbounds i8, ptr %this, i64 304
  %0 = load i32, ptr %m_nqs, align 8
  %cmp20.not = icmp eq i32 %0, 0
  br i1 %cmp20.not, label %return, label %for.body.lr.ph

for.body.lr.ph:                                   ; preds = %entry
  %m_elems.i = getelementptr inbounds i8, ptr %this, i64 320
  %m_index.i = getelementptr inbounds i8, ptr %this, i64 336
  br label %for.body

for.body:                                         ; preds = %for.body.lr.ph, %for.inc
  %1 = load ptr, ptr %m_index.i, align 8
  %2 = load i32, ptr %1, align 4
  %3 = load ptr, ptr %m_elems.i, align 8
  %idxprom.i1.i = zext i32 %2 to i64
  %arrayidx.i2.i = getelementptr inbounds %"class.smt::theory_seq::ne", ptr %3, i64 %idxprom.i1.i
  call void @_ZN3smt10theory_seq2neC2ERKS1_(ptr noundef nonnull align 8 dereferenceable(56) %n, ptr noundef nonnull align 8 dereferenceable(56) %arrayidx.i2.i)
  %call4 = invoke noundef i32 @_ZN3smt10theory_seq9branch_nqERKNS0_2neE(ptr noundef nonnull align 8 dereferenceable(4328) %this, ptr noundef nonnull align 8 dereferenceable(56) %n)
          to label %invoke.cont unwind label %lpad.loopexit, !range !22

invoke.cont:                                      ; preds = %for.body
  switch i32 %call4, label %default.unreachable27 [
    i32 0, label %cleanup.thread
    i32 1, label %sw.bb5
    i32 -1, label %sw.bb8
  ]

lpad.loopexit:                                    ; preds = %for.body, %sw.bb5
  %lpad.loopexit8 = landingpad { ptr, i32 }
          cleanup
  br label %lpad

lpad.loopexit.split-lp:                           ; preds = %sw.bb8
  %lpad.loopexit.split-lp9 = landingpad { ptr, i32 }
          cleanup
  br label %lpad

lpad:                                             ; preds = %lpad.loopexit.split-lp, %lpad.loopexit
  %lpad.phi = phi { ptr, i32 } [ %lpad.loopexit8, %lpad.loopexit ], [ %lpad.loopexit.split-lp9, %lpad.loopexit.split-lp ]
  call void @_ZN3smt10theory_seq2neD2Ev(ptr noundef nonnull align 8 dereferenceable(56) %n) #12
  resume { ptr, i32 } %lpad.phi

sw.bb5:                                           ; preds = %invoke.cont
  invoke void @_ZN13scoped_vectorIN3smt10theory_seq2neEE14erase_and_swapEj(ptr noundef nonnull align 8 dereferenceable(64) %m_nqs, i32 noundef 0)
          to label %for.inc unwind label %lpad.loopexit

sw.bb8:                                           ; preds = %invoke.cont
  invoke void @_ZN13scoped_vectorIN3smt10theory_seq2neEE14erase_and_swapEj(ptr noundef nonnull align 8 dereferenceable(64) %m_nqs, i32 noundef 0)
          to label %cleanup.thread unwind label %lpad.loopexit.split-lp

default.unreachable27:                            ; preds = %invoke.cont
  unreachable

cleanup.thread:                                   ; preds = %invoke.cont, %sw.bb8
  call void @_ZN3smt10theory_seq2neD2Ev(ptr noundef nonnull align 8 dereferenceable(56) %n) #12
  br label %return

for.inc:                                          ; preds = %sw.bb5
  call void @_ZN3smt10theory_seq2neD2Ev(ptr noundef nonnull align 8 dereferenceable(56) %n) #12
  %4 = load i32, ptr %m_nqs, align 8
  %cmp.not = icmp eq i32 %4, 0
  br i1 %cmp.not, label %return, label %for.body, !llvm.loop !23

return:                                           ; preds = %for.inc, %entry, %cleanup.thread
  %cmp14 = phi i1 [ true, %cleanup.thread ], [ false, %entry ], [ false, %for.inc ]
  ret i1 %cmp14
}